target datalayout = "e-m:e-p270:32:32-p271:32:32-p272:64:64-i64:64-i128:128-f80:128-n8:16:32:64-S128"
target triple = "x86_64-pc-linux-gnu"

%"class.cv::tinyxml2::XMLPrinter" = type { %"class.cv::tinyxml2::XMLVisitor", i8, %"class.cv::tinyxml2::DynArray.6", i8, ptr, i32, i32, i8, i8, [64 x i8], [64 x i8], [6 x i8], %"class.cv::tinyxml2::DynArray.7" }
%"class.cv::tinyxml2::XMLVisitor" = type { ptr }
%"class.cv::tinyxml2::DynArray.6" = type { ptr, [10 x ptr], i32, i32 }
%"class.cv::tinyxml2::DynArray.7" = type <{ ptr, [20 x i8], i32, i32, [4 x i8] }>

@.str.16 = private unnamed_addr constant [2 x i8] c">\00", align 1
@.str.26 = private unnamed_addr constant [2 x i8] c"\0A\00", align 1
@.str.27 = private unnamed_addr constant [4 x i8] c"<%s\00", align 1

; Function Attrs: mustprogress uwtable
define linkonce_odr hidden void @_ZN2cv8tinyxml28DynArrayIPKcLi10EE14EnsureCapacityEi(ptr noundef nonnull align 8 dereferenceable(96) %0, i32 noundef %1) #3 comdat align 2 {
  %3 = alloca ptr, align 8
  %4 = alloca i32, align 4
  %5 = alloca i32, align 4
  %6 = alloca ptr, align 8
  store ptr %0, ptr %3, align 8, !tbaa !201
  store i32 %1, ptr %4, align 4, !tbaa !15
  %7 = load ptr, ptr %3, align 8
  %8 = load i32, ptr %4, align 4, !tbaa !15
  %9 = getelementptr inbounds nuw %"class.cv::tinyxml2::DynArray.6", ptr %7, i32 0, i32 2
  %10 = load i32, ptr %9, align 8, !tbaa !204
  %11 = icmp sgt i32 %8, %10
  br i1 %11, label %12, label %45

12:                                               ; preds = %2
  call void @llvm.lifetime.start.p0(i64 4, ptr %5) #17
  %13 = load i32, ptr %4, align 4, !tbaa !15
  %14 = mul nsw i32 %13, 2
  store i32 %14, ptr %5, align 4, !tbaa !15
  call void @llvm.lifetime.start.p0(i64 8, ptr %6) #17
  %15 = load i32, ptr %5, align 4, !tbaa !15
  %16 = sext i32 %15 to i64
  %17 = call { i64, i1 } @llvm.umul.with.overflow.i64(i64 %16, i64 8)
  %18 = extractvalue { i64, i1 } %17, 1
  %19 = extractvalue { i64, i1 } %17, 0
  %20 = select i1 %18, i64 -1, i64 %19
  %21 = call noalias noundef nonnull ptr @_Znam(i64 noundef %20) #19
  store ptr %21, ptr %6, align 8, !tbaa !244
  %22 = load ptr, ptr %6, align 8, !tbaa !244
  %23 = getelementptr inbounds nuw %"class.cv::tinyxml2::DynArray.6", ptr %7, i32 0, i32 0
  %24 = load ptr, ptr %23, align 8, !tbaa !203
  %25 = getelementptr inbounds nuw %"class.cv::tinyxml2::DynArray.6", ptr %7, i32 0, i32 3
  %26 = load i32, ptr %25, align 4, !tbaa !205
  %27 = sext i32 %26 to i64
  %28 = mul i64 8, %27
  call void @llvm.memcpy.p0.p0.i64(ptr align 8 %22, ptr align 8 %24, i64 %28, i1 false)
  %29 = getelementptr inbounds nuw %"class.cv::tinyxml2::DynArray.6", ptr %7, i32 0, i32 0
  %30 = load ptr, ptr %29, align 8, !tbaa !203
  %31 = getelementptr inbounds nuw %"class.cv::tinyxml2::DynArray.6", ptr %7, i32 0, i32 1
  %32 = getelementptr inbounds [10 x ptr], ptr %31, i64 0, i64 0
  %33 = icmp ne ptr %30, %32
  br i1 %33, label %34, label %40

34:                                               ; preds = %12
  %35 = getelementptr inbounds nuw %"class.cv::tinyxml2::DynArray.6", ptr %7, i32 0, i32 0
  %36 = load ptr, ptr %35, align 8, !tbaa !203
  %37 = icmp eq ptr %36, null
  br i1 %37, label %39, label %38

38:                                               ; preds = %34
  call void @_ZdaPv(ptr noundef %36) #16
  br label %39

39:                                               ; preds = %38, %34
  br label %40

40:                                               ; preds = %39, %12
  %41 = load ptr, ptr %6, align 8, !tbaa !244
  %42 = getelementptr inbounds nuw %"class.cv::tinyxml2::DynArray.6", ptr %7, i32 0, i32 0
  store ptr %41, ptr %42, align 8, !tbaa !203
  %43 = load i32, ptr %5, align 4, !tbaa !15
  %44 = getelementptr inbounds nuw %"class.cv::tinyxml2::DynArray.6", ptr %7, i32 0, i32 2
  store i32 %43, ptr %44, align 8, !tbaa !204
  call void @llvm.lifetime.end.p0(i64 8, ptr %6) #17
  call void @llvm.lifetime.end.p0(i64 4, ptr %5) #17
  br label %45

45:                                               ; preds = %40, %2
  ret void
}

; Function Attrs: mustprogress uwtable
define linkonce_odr hidden void @_ZN2cv8tinyxml28DynArrayIPKcLi10EE4PushES3_(ptr noundef nonnull align 8 dereferenceable(96) %0, ptr noundef %1) #3 comdat align 2 {
  %3 = alloca ptr, align 8
  %4 = alloca ptr, align 8
  store ptr %0, ptr %3, align 8, !tbaa !201
  store ptr %1, ptr %4, align 8, !tbaa !14
  %5 = load ptr, ptr %3, align 8
  %6 = getelementptr inbounds nuw %"class.cv::tinyxml2::DynArray.6", ptr %5, i32 0, i32 3
  %7 = load i32, ptr %6, align 4, !tbaa !205
  %8 = add nsw i32 %7, 1
  call void @_ZN2cv8tinyxml28DynArrayIPKcLi10EE14EnsureCapacityEi(ptr noundef nonnull align 8 dereferenceable(96) %5, i32 noundef %8)
  %9 = load ptr, ptr %4, align 8, !tbaa !14
  %10 = getelementptr inbounds nuw %"class.cv::tinyxml2::DynArray.6", ptr %5, i32 0, i32 0
  %11 = load ptr, ptr %10, align 8, !tbaa !203
  %12 = getelementptr inbounds nuw %"class.cv::tinyxml2::DynArray.6", ptr %5, i32 0, i32 3
  %13 = load i32, ptr %12, align 4, !tbaa !205
  %14 = add nsw i32 %13, 1
  store i32 %14, ptr %12, align 4, !tbaa !205
  %15 = sext i32 %13 to i64
  %16 = getelementptr inbounds ptr, ptr %11, i64 %15
  store ptr %9, ptr %16, align 8, !tbaa !14
  ret void
}

; Function Attrs: mustprogress uwtable
define hidden void @_ZN2cv8tinyxml210XMLPrinter11SealElementEv(ptr noundef nonnull align 8 dereferenceable(312) %0) #3 align 2 {
  %2 = alloca ptr, align 8
  store ptr %0, ptr %2, align 8, !tbaa !185
  %3 = load ptr, ptr %2, align 8
  %4 = getelementptr inbounds nuw %"class.cv::tinyxml2::XMLPrinter", ptr %3, i32 0, i32 1
  store i8 0, ptr %4, align 8, !tbaa !187
  call void (ptr, ptr, ...) @_ZN2cv8tinyxml210XMLPrinter5PrintEPKcz(ptr noundef nonnull align 8 dereferenceable(312) %3, ptr noundef @.str.16)
  ret void
}

; Function Attrs: mustprogress uwtable
define hidden void @_ZN2cv8tinyxml210XMLPrinter11OpenElementEPKcb(ptr noundef nonnull align 8 dereferenceable(312) %0, ptr noundef %1, i1 noundef zeroext %2) #3 align 2 {
  %4 = alloca ptr, align 8
  %5 = alloca ptr, align 8
  %6 = alloca i8, align 1
  store ptr %0, ptr %4, align 8, !tbaa !185
  store ptr %1, ptr %5, align 8, !tbaa !14
  %7 = zext i1 %2 to i8
  store i8 %7, ptr %6, align 1, !tbaa !37
  %8 = load ptr, ptr %4, align 8
  %9 = getelementptr inbounds nuw %"class.cv::tinyxml2::XMLPrinter", ptr %8, i32 0, i32 1
  %10 = load i8, ptr %9, align 8, !tbaa !187, !range !39, !noundef !40
  %11 = trunc i8 %10 to i1
  br i1 %11, label %12, label %13

12:                                               ; preds = %3
  call void @_ZN2cv8tinyxml210XMLPrinter11SealElementEv(ptr noundef nonnull align 8 dereferenceable(312) %8)
  br label %13

13:                                               ; preds = %12, %3
  %14 = getelementptr inbounds nuw %"class.cv::tinyxml2::XMLPrinter", ptr %8, i32 0, i32 2
  %15 = load ptr, ptr %5, align 8, !tbaa !14
  call void @_ZN2cv8tinyxml28DynArrayIPKcLi10EE4PushES3_(ptr noundef nonnull align 8 dereferenceable(96) %14, ptr noundef %15)
  %16 = getelementptr inbounds nuw %"class.cv::tinyxml2::XMLPrinter", ptr %8, i32 0, i32 6
  %17 = load i32, ptr %16, align 4, !tbaa !196
  %18 = icmp slt i32 %17, 0
  br i1 %18, label %19, label %27

19:                                               ; preds = %13
  %20 = getelementptr inbounds nuw %"class.cv::tinyxml2::XMLPrinter", ptr %8, i32 0, i32 3
  %21 = load i8, ptr %20, align 8, !tbaa !193, !range !39, !noundef !40
  %22 = trunc i8 %21 to i1
  br i1 %22, label %27, label %23

23:                                               ; preds = %19
  %24 = load i8, ptr %6, align 1, !tbaa !37, !range !39, !noundef !40
  %25 = trunc i8 %24 to i1
  br i1 %25, label %27, label %26

26:                                               ; preds = %23
  call void (ptr, ptr, ...) @_ZN2cv8tinyxml210XMLPrinter5PrintEPKcz(ptr noundef nonnull align 8 dereferenceable(312) %8, ptr noundef @.str.26)
  br label %27

27:                                               ; preds = %26, %23, %19, %13
  %28 = load i8, ptr %6, align 1, !tbaa !37, !range !39, !noundef !40
  %29 = trunc i8 %28 to i1
  br i1 %29, label %36, label %30

30:                                               ; preds = %27
  %31 = getelementptr inbounds nuw %"class.cv::tinyxml2::XMLPrinter", ptr %8, i32 0, i32 5
  %32 = load i32, ptr %31, align 8, !tbaa !195
  %33 = load ptr, ptr %8, align 8, !tbaa !92
  %34 = getelementptr inbounds ptr, ptr %33, i64 12
  %35 = load ptr, ptr %34, align 8
  call void %35(ptr noundef nonnull align 8 dereferenceable(312) %8, i32 noundef %32)
  br label %36

36:                                               ; preds = %30, %27
  %37 = load ptr, ptr %5, align 8, !tbaa !14
  call void (ptr, ptr, ...) @_ZN2cv8tinyxml210XMLPrinter5PrintEPKcz(ptr noundef nonnull align 8 dereferenceable(312) %8, ptr noundef @.str.27, ptr noundef %37)
  %38 = getelementptr inbounds nuw %"class.cv::tinyxml2::XMLPrinter", ptr %8, i32 0, i32 1
  store i8 1, ptr %38, align 8, !tbaa !187
  %39 = getelementptr inbounds nuw %"class.cv::tinyxml2::XMLPrinter", ptr %8, i32 0, i32 3
  store i8 0, ptr %39, align 8, !tbaa !193
  %40 = getelementptr inbounds nuw %"class.cv::tinyxml2::XMLPrinter", ptr %8, i32 0, i32 5
  %41 = load i32, ptr %40, align 8, !tbaa !195
  %42 = add nsw i32 %41, 1
  store i32 %42, ptr %40, align 8, !tbaa !195
  ret void
}