; Function Attrs: mustprogress uwtable
define hidden void @_ZN2cv8tinyxml210XMLPrinter11OpenElementEPKcb(ptr noundef nonnull align 8 dereferenceable(312) %0, ptr noundef %1, i1 noundef zeroext %2) local_unnamed_addr #4 align 2 {
  %4 = getelementptr inbounds nuw i8, ptr %0, i64 8
  %5 = load i8, ptr %4, align 8, !tbaa !153, !range !119, !noundef !120
  %6 = trunc nuw i8 %5 to i1
  br i1 %6, label %7, label %8

7:                                                ; preds = %3
  store i8 0, ptr %4, align 8, !tbaa !153
  tail call void (ptr, ptr, ...) @_ZN2cv8tinyxml210XMLPrinter5PrintEPKcz(ptr noundef nonnull align 8 dereferenceable(312) %0, ptr noundef nonnull @.str.16)
  br label %8

8:                                                ; preds = %7, %3
  %9 = getelementptr inbounds nuw i8, ptr %0, i64 16
  %10 = getelementptr inbounds nuw i8, ptr %0, i64 108
  %11 = load i32, ptr %10, align 4, !tbaa !162
  %12 = getelementptr inbounds nuw i8, ptr %0, i64 104
  %13 = load i32, ptr %12, align 8, !tbaa !161
  %.not.i = icmp slt i32 %11, %13
  br i1 %.not.i, label %._ZN2cv8tinyxml28DynArrayIPKcLi10EE14EnsureCapacityEi.exit_crit_edge.i, label %14

._ZN2cv8tinyxml28DynArrayIPKcLi10EE14EnsureCapacityEi.exit_crit_edge.i: ; preds = %8
  %.pre.i = load ptr, ptr %9, align 8, !tbaa !160
  br label %_ZN2cv8tinyxml28DynArrayIPKcLi10EE4PushES3_.exit

14:                                               ; preds = %8
  %15 = shl i32 %11, 1
  %16 = add i32 %15, 2
  %17 = sext i32 %16 to i64
  %18 = icmp slt i32 %11, -1
  %19 = shl nsw i64 %17, 3
  %20 = select i1 %18, i64 -1, i64 %19
  %21 = tail call noalias noundef nonnull ptr @_Znam(i64 noundef %20) #27
  %22 = load ptr, ptr %9, align 8, !tbaa !160
  %23 = sext i32 %11 to i64
  %24 = shl nsw i64 %23, 3
  tail call void @llvm.memcpy.p0.p0.i64(ptr nonnull align 8 %21, ptr align 8 %22, i64 %24, i1 false)
  %25 = getelementptr inbounds nuw i8, ptr %0, i64 24
  %.not.i.i = icmp eq ptr %22, %25
  %26 = icmp eq ptr %22, null
  %or.cond.i.i = or i1 %.not.i.i, %26
  br i1 %or.cond.i.i, label %28, label %27

27:                                               ; preds = %14
  tail call void @_ZdaPv(ptr noundef nonnull %22) #23
  %.pre2.pre.i = load i32, ptr %10, align 4, !tbaa !162
  br label %28

28:                                               ; preds = %27, %14
  %.pre2.i = phi i32 [ %.pre2.pre.i, %27 ], [ %11, %14 ]
  store ptr %21, ptr %9, align 8, !tbaa !160
  store i32 %16, ptr %12, align 8, !tbaa !161
  br label %_ZN2cv8tinyxml28DynArrayIPKcLi10EE4PushES3_.exit

_ZN2cv8tinyxml28DynArrayIPKcLi10EE4PushES3_.exit: ; preds = %._ZN2cv8tinyxml28DynArrayIPKcLi10EE14EnsureCapacityEi.exit_crit_edge.i, %28
  %29 = phi i32 [ %11, %._ZN2cv8tinyxml28DynArrayIPKcLi10EE14EnsureCapacityEi.exit_crit_edge.i ], [ %.pre2.i, %28 ]
  %30 = phi ptr [ %.pre.i, %._ZN2cv8tinyxml28DynArrayIPKcLi10EE14EnsureCapacityEi.exit_crit_edge.i ], [ %21, %28 ]
  %31 = add nsw i32 %29, 1
  store i32 %31, ptr %10, align 4, !tbaa !162
  %32 = sext i32 %29 to i64
  %33 = getelementptr inbounds ptr, ptr %30, i64 %32
  store ptr %1, ptr %33, align 8, !tbaa !115
  %34 = getelementptr inbounds nuw i8, ptr %0, i64 132
  %35 = load i32, ptr %34, align 4, !tbaa !166
  %36 = icmp sgt i32 %35, -1
  %37 = getelementptr inbounds nuw i8, ptr %0, i64 112
  %38 = load i8, ptr %37, align 8, !range !119
  %39 = trunc nuw i8 %38 to i1
  %brmerge = or i1 %2, %39
  %or.cond = select i1 %36, i1 true, i1 %brmerge
  br i1 %or.cond, label %41, label %40

40:                                               ; preds = %_ZN2cv8tinyxml28DynArrayIPKcLi10EE4PushES3_.exit
  tail call void (ptr, ptr, ...) @_ZN2cv8tinyxml210XMLPrinter5PrintEPKcz(ptr noundef nonnull align 8 dereferenceable(312) %0, ptr noundef nonnull @.str.26)
  br label %41

41:                                               ; preds = %40, %_ZN2cv8tinyxml28DynArrayIPKcLi10EE4PushES3_.exit
  br i1 %2, label %48, label %42

42:                                               ; preds = %41
  %43 = getelementptr inbounds nuw i8, ptr %0, i64 128
  %44 = load i32, ptr %43, align 8, !tbaa !165
  %45 = load ptr, ptr %0, align 8, !tbaa !39
  %46 = getelementptr inbounds nuw i8, ptr %45, i64 96
  %47 = load ptr, ptr %46, align 8
  tail call void %47(ptr noundef nonnull align 8 dereferenceable(312) %0, i32 noundef %44)
  br label %48

48:                                               ; preds = %42, %41
  tail call void (ptr, ptr, ...) @_ZN2cv8tinyxml210XMLPrinter5PrintEPKcz(ptr noundef nonnull align 8 dereferenceable(312) %0, ptr noundef nonnull @.str.27, ptr noundef %1)
  store i8 1, ptr %4, align 8, !tbaa !153
  store i8 0, ptr %37, align 8, !tbaa !163
  %49 = getelementptr inbounds nuw i8, ptr %0, i64 128
  %50 = load i32, ptr %49, align 8, !tbaa !165
  %51 = add nsw i32 %50, 1
  store i32 %51, ptr %49, align 8, !tbaa !165
  ret void
}